target datalayout = "e-m:e-p270:32:32-p271:32:32-p272:64:64-i64:64-i128:128-f80:128-n8:16:32:64-S128"
target triple = "x86_64-pc-linux-gnu"

%struct.strbuf = type { i64, i64, ptr }
%struct.option = type { i32, i32, ptr, ptr, ptr, ptr, i32, ptr, i64, ptr, i64, ptr }
%struct.string_list = type { ptr, i64, i64, i8, ptr }
%struct.repository = type { ptr, ptr, ptr, ptr, ptr, %struct.strmap, %struct.strmap, %struct.repo_path_cache, ptr, ptr, ptr, ptr, %struct.repo_settings, ptr, ptr, ptr, ptr, ptr, ptr, i32, i32, i32, ptr, ptr, i32, i32, i8 }
%struct.strmap = type { %struct.hashmap, ptr, i8 }
%struct.hashmap = type { ptr, ptr, ptr, i32, i32, i32, i32, i8 }
%struct.repo_path_cache = type { ptr, ptr, ptr, ptr, ptr, ptr, ptr }
%struct.repo_settings = type { i32, i32, i32, i32, i32, i32, i32, i32, i32, i32, i32, i32, ptr, i32, i32, i32, i32, i32, i32, i32, i64, i64, i64 }
%struct.string_list_item = type { ptr, ptr }

@the_repository = external global ptr, align 8
@.str.159 = private unnamed_addr constant [21 x i8] c"maintenance.strategy\00", align 1
@.str.160 = private unnamed_addr constant [12 x i8] c"incremental\00", align 1
@.str.265 = private unnamed_addr constant [12 x i8] c"config-file\00", align 1
@.str.266 = private unnamed_addr constant [5 x i8] c"file\00", align 1
@.str.267 = private unnamed_addr constant [22 x i8] c"use given config file\00", align 1
@.str.268 = private unnamed_addr constant [17 x i8] c"maintenance.repo\00", align 1
@builtin_maintenance_register_usage = internal constant [2 x ptr] [ptr @.str.273, ptr null], align 16
@.str.269 = private unnamed_addr constant [17 x i8] c"maintenance.auto\00", align 1
@.str.270 = private unnamed_addr constant [6 x i8] c"false\00", align 1
@.str.271 = private unnamed_addr constant [14 x i8] c"$HOME not set\00", align 1
@.str.272 = private unnamed_addr constant [33 x i8] c"unable to add '%s' value of '%s'\00", align 1
@__const.get_maintpath.sb = private unnamed_addr constant %struct.strbuf { i64 0, i64 0, ptr @strbuf_slopbuf }, align 8

; Function Attrs: inlinehint nounwind uwtable
define internal i32 @git_config_set_multivar_in_file_gently(ptr noundef %0, ptr noundef %1, ptr noundef %2, ptr noundef %3, ptr noundef %4, i32 noundef %5) #6 {
  %7 = alloca ptr, align 8
  %8 = alloca ptr, align 8
  %9 = alloca ptr, align 8
  %10 = alloca ptr, align 8
  %11 = alloca ptr, align 8
  %12 = alloca i32, align 4
  store ptr %0, ptr %7, align 8, !tbaa !11
  store ptr %1, ptr %8, align 8, !tbaa !11
  store ptr %2, ptr %9, align 8, !tbaa !11
  store ptr %3, ptr %10, align 8, !tbaa !11
  store ptr %4, ptr %11, align 8, !tbaa !11
  store i32 %5, ptr %12, align 4, !tbaa !4
  %13 = load ptr, ptr @the_repository, align 8, !tbaa !13
  %14 = load ptr, ptr %7, align 8, !tbaa !11
  %15 = load ptr, ptr %8, align 8, !tbaa !11
  %16 = load ptr, ptr %9, align 8, !tbaa !11
  %17 = load ptr, ptr %10, align 8, !tbaa !11
  %18 = load ptr, ptr %11, align 8, !tbaa !11
  %19 = load i32, ptr %12, align 4, !tbaa !4
  %20 = call i32 @repo_config_set_multivar_in_file_gently(ptr noundef %13, ptr noundef %14, ptr noundef %15, ptr noundef %16, ptr noundef %17, ptr noundef %18, i32 noundef %19)
  ret i32 %20
}

; Function Attrs: inlinehint nounwind uwtable
define internal i32 @git_config_get_string_multi(ptr noundef %0, ptr noundef %1) #6 {
  %3 = alloca ptr, align 8
  %4 = alloca ptr, align 8
  store ptr %0, ptr %3, align 8, !tbaa !11
  store ptr %1, ptr %4, align 8, !tbaa !227
  %5 = load ptr, ptr @the_repository, align 8, !tbaa !13
  %6 = load ptr, ptr %3, align 8, !tbaa !11
  %7 = load ptr, ptr %4, align 8, !tbaa !227
  %8 = call i32 @repo_config_get_string_multi(ptr noundef %5, ptr noundef %6, ptr noundef %7)
  ret i32 %8
}

; Function Attrs: inlinehint nounwind uwtable
define internal i32 @git_config_get(ptr noundef %0) #6 {
  %2 = alloca ptr, align 8
  store ptr %0, ptr %2, align 8, !tbaa !11
  %3 = load ptr, ptr @the_repository, align 8, !tbaa !13
  %4 = load ptr, ptr %2, align 8, !tbaa !11
  %5 = call i32 @repo_config_get(ptr noundef %3, ptr noundef %4)
  ret i32 %5
}

; Function Attrs: inlinehint nounwind uwtable
define internal void @git_config_set(ptr noundef %0, ptr noundef %1) #6 {
  %3 = alloca ptr, align 8
  %4 = alloca ptr, align 8
  store ptr %0, ptr %3, align 8, !tbaa !11
  store ptr %1, ptr %4, align 8, !tbaa !11
  %5 = load ptr, ptr @the_repository, align 8, !tbaa !13
  %6 = load ptr, ptr %3, align 8, !tbaa !11
  %7 = load ptr, ptr %4, align 8, !tbaa !11
  call void @repo_config_set(ptr noundef %5, ptr noundef %6, ptr noundef %7)
  ret void
}

; Function Attrs: nounwind uwtable
define internal ptr @get_maintpath() #0 {
  %1 = alloca %struct.strbuf, align 8
  %2 = alloca ptr, align 8
  call void @llvm.lifetime.start.p0(i64 24, ptr %1) #11
  call void @llvm.memcpy.p0.p0.i64(ptr align 8 %1, ptr align 8 @__const.get_maintpath.sb, i64 24, i1 false)
  call void @llvm.lifetime.start.p0(i64 8, ptr %2) #11
  %3 = load ptr, ptr @the_repository, align 8, !tbaa !13
  %4 = getelementptr inbounds nuw %struct.repository, ptr %3, i32 0, i32 10
  %5 = load ptr, ptr %4, align 8, !tbaa !225
  %6 = icmp ne ptr %5, null
  br i1 %6, label %7, label %11

7:                                                ; preds = %0
  %8 = load ptr, ptr @the_repository, align 8, !tbaa !13
  %9 = getelementptr inbounds nuw %struct.repository, ptr %8, i32 0, i32 10
  %10 = load ptr, ptr %9, align 8, !tbaa !225
  br label %15

11:                                               ; preds = %0
  %12 = load ptr, ptr @the_repository, align 8, !tbaa !13
  %13 = getelementptr inbounds nuw %struct.repository, ptr %12, i32 0, i32 0
  %14 = load ptr, ptr %13, align 8, !tbaa !226
  br label %15

15:                                               ; preds = %11, %7
  %16 = phi ptr [ %10, %7 ], [ %14, %11 ]
  store ptr %16, ptr %2, align 8, !tbaa !11
  %17 = load ptr, ptr %2, align 8, !tbaa !11
  %18 = call ptr @strbuf_realpath(ptr noundef %1, ptr noundef %17, i32 noundef 1)
  %19 = call ptr @strbuf_detach(ptr noundef %1, ptr noundef null)
  call void @llvm.lifetime.end.p0(i64 8, ptr %2) #11
  call void @llvm.lifetime.end.p0(i64 24, ptr %1) #11
  ret ptr %19
}

; Function Attrs: nounwind uwtable
define internal i32 @maintenance_register(i32 noundef %0, ptr noundef %1, ptr noundef %2, ptr noundef %3) #0 {
  %5 = alloca i32, align 4
  %6 = alloca ptr, align 8
  %7 = alloca ptr, align 8
  %8 = alloca ptr, align 8
  %9 = alloca ptr, align 8
  %10 = alloca [2 x %struct.option], align 16
  %11 = alloca i32, align 4
  %12 = alloca ptr, align 8
  %13 = alloca ptr, align 8
  %14 = alloca ptr, align 8
  %15 = alloca ptr, align 8
  %16 = alloca i32, align 4
  %17 = alloca ptr, align 8
  store i32 %0, ptr %5, align 4, !tbaa !4
  store ptr %1, ptr %6, align 8, !tbaa !8
  store ptr %2, ptr %7, align 8, !tbaa !11
  store ptr %3, ptr %8, align 8, !tbaa !13
  call void @llvm.lifetime.start.p0(i64 8, ptr %9) #11
  store ptr null, ptr %9, align 8, !tbaa !11
  call void @llvm.lifetime.start.p0(i64 176, ptr %10) #11
  call void @llvm.memset.p0.i64(ptr align 16 %10, i8 0, i64 176, i1 false)
  %18 = getelementptr inbounds nuw %struct.option, ptr %10, i32 0, i32 0
  store i32 10, ptr %18, align 8, !tbaa !34
  %19 = getelementptr inbounds nuw %struct.option, ptr %10, i32 0, i32 2
  store ptr @.str.265, ptr %19, align 8, !tbaa !37
  %20 = getelementptr inbounds nuw %struct.option, ptr %10, i32 0, i32 3
  store ptr %9, ptr %20, align 8, !tbaa !38
  %21 = getelementptr inbounds nuw %struct.option, ptr %10, i32 0, i32 4
  store ptr @.str.266, ptr %21, align 8, !tbaa !39
  %22 = getelementptr inbounds nuw %struct.option, ptr %10, i32 0, i32 5
  store ptr @.str.267, ptr %22, align 8, !tbaa !40
  %23 = getelementptr inbounds %struct.option, ptr %10, i64 1
  %24 = getelementptr inbounds nuw %struct.option, ptr %23, i32 0, i32 0
  store i32 0, ptr %24, align 8, !tbaa !34
  call void @llvm.lifetime.start.p0(i64 4, ptr %11) #11
  store i32 0, ptr %11, align 4, !tbaa !4
  call void @llvm.lifetime.start.p0(i64 8, ptr %12) #11
  store ptr @.str.268, ptr %12, align 8, !tbaa !11
  call void @llvm.lifetime.start.p0(i64 8, ptr %13) #11
  %25 = call ptr @get_maintpath()
  store ptr %25, ptr %13, align 8, !tbaa !11
  call void @llvm.lifetime.start.p0(i64 8, ptr %14) #11
  call void @llvm.lifetime.start.p0(i64 8, ptr %15) #11
  %26 = load i32, ptr %5, align 4, !tbaa !4
  %27 = load ptr, ptr %6, align 8, !tbaa !8
  %28 = load ptr, ptr %7, align 8, !tbaa !11
  %29 = getelementptr inbounds [2 x %struct.option], ptr %10, i64 0, i64 0
  %30 = call i32 @parse_options(i32 noundef %26, ptr noundef %27, ptr noundef %28, ptr noundef %29, ptr noundef @builtin_maintenance_register_usage, i32 noundef 0)
  store i32 %30, ptr %5, align 4, !tbaa !4
  %31 = load i32, ptr %5, align 4, !tbaa !4
  %32 = icmp ne i32 %31, 0
  br i1 %32, label %33, label %35

33:                                               ; preds = %4
  %34 = getelementptr inbounds [2 x %struct.option], ptr %10, i64 0, i64 0
  call void @usage_with_options(ptr noundef @builtin_maintenance_register_usage, ptr noundef %34) #12
  unreachable

35:                                               ; preds = %4
  call void @git_config_set(ptr noundef @.str.269, ptr noundef @.str.270)
  %36 = call i32 @git_config_get(ptr noundef @.str.159)
  %37 = icmp ne i32 %36, 0
  br i1 %37, label %38, label %39

38:                                               ; preds = %35
  call void @git_config_set(ptr noundef @.str.159, ptr noundef @.str.160)
  br label %39

39:                                               ; preds = %38, %35
  %40 = load ptr, ptr %12, align 8, !tbaa !11
  %41 = call i32 @git_config_get_string_multi(ptr noundef %40, ptr noundef %15)
  %42 = icmp ne i32 %41, 0
  br i1 %42, label %75, label %43

43:                                               ; preds = %39
  %44 = load ptr, ptr %15, align 8, !tbaa !95
  %45 = getelementptr inbounds nuw %struct.string_list, ptr %44, i32 0, i32 0
  %46 = load ptr, ptr %45, align 8, !tbaa !117
  store ptr %46, ptr %14, align 8, !tbaa !137
  br label %47

47:                                               ; preds = %71, %43
  %48 = load ptr, ptr %14, align 8, !tbaa !137
  %49 = icmp ne ptr %48, null
  br i1 %49, label %50, label %60

50:                                               ; preds = %47
  %51 = load ptr, ptr %14, align 8, !tbaa !137
  %52 = load ptr, ptr %15, align 8, !tbaa !95
  %53 = getelementptr inbounds nuw %struct.string_list, ptr %52, i32 0, i32 0
  %54 = load ptr, ptr %53, align 8, !tbaa !117
  %55 = load ptr, ptr %15, align 8, !tbaa !95
  %56 = getelementptr inbounds nuw %struct.string_list, ptr %55, i32 0, i32 1
  %57 = load i64, ptr %56, align 8, !tbaa !55
  %58 = getelementptr inbounds nuw %struct.string_list_item, ptr %54, i64 %57
  %59 = icmp ult ptr %51, %58
  br label %60

60:                                               ; preds = %50, %47
  %61 = phi i1 [ false, %47 ], [ %59, %50 ]
  br i1 %61, label %62, label %74

62:                                               ; preds = %60
  %63 = load ptr, ptr %13, align 8, !tbaa !11
  %64 = load ptr, ptr %14, align 8, !tbaa !137
  %65 = getelementptr inbounds nuw %struct.string_list_item, ptr %64, i32 0, i32 0
  %66 = load ptr, ptr %65, align 8, !tbaa !118
  %67 = call i32 @strcmp(ptr noundef %63, ptr noundef %66) #13
  %68 = icmp ne i32 %67, 0
  br i1 %68, label %70, label %69

69:                                               ; preds = %62
  store i32 1, ptr %11, align 4, !tbaa !4
  br label %74

70:                                               ; preds = %62
  br label %71

71:                                               ; preds = %70
  %72 = load ptr, ptr %14, align 8, !tbaa !137
  %73 = getelementptr inbounds nuw %struct.string_list_item, ptr %72, i32 1
  store ptr %73, ptr %14, align 8, !tbaa !137
  br label %47, !llvm.loop !138

74:                                               ; preds = %69, %60
  br label %75

75:                                               ; preds = %74, %39
  %76 = load i32, ptr %11, align 4, !tbaa !4
  %77 = icmp ne i32 %76, 0
  br i1 %77, label %101, label %78

78:                                               ; preds = %75
  call void @llvm.lifetime.start.p0(i64 4, ptr %16) #11
  call void @llvm.lifetime.start.p0(i64 8, ptr %17) #11
  store ptr null, ptr %17, align 8, !tbaa !11
  %79 = load ptr, ptr %9, align 8, !tbaa !11
  %80 = icmp ne ptr %79, null
  br i1 %80, label %84, label %81

81:                                               ; preds = %78
  %82 = call ptr @git_global_config()
  store ptr %82, ptr %17, align 8, !tbaa !11
  %83 = load ptr, ptr %17, align 8, !tbaa !11
  store ptr %83, ptr %9, align 8, !tbaa !11
  br label %84

84:                                               ; preds = %81, %78
  %85 = load ptr, ptr %9, align 8, !tbaa !11
  %86 = icmp ne ptr %85, null
  br i1 %86, label %89, label %87

87:                                               ; preds = %84
  %88 = call ptr @_(ptr noundef @.str.271)
  call void (ptr, ...) @die(ptr noundef %88) #12
  unreachable

89:                                               ; preds = %84
  %90 = load ptr, ptr %9, align 8, !tbaa !11
  %91 = load ptr, ptr %13, align 8, !tbaa !11
  %92 = call i32 @git_config_set_multivar_in_file_gently(ptr noundef %90, ptr noundef @.str.268, ptr noundef %91, ptr noundef inttoptr (i64 1 to ptr), ptr noundef null, i32 noundef 0)
  store i32 %92, ptr %16, align 4, !tbaa !4
  %93 = load ptr, ptr %17, align 8, !tbaa !11
  call void @free(ptr noundef %93) #11
  %94 = load i32, ptr %16, align 4, !tbaa !4
  %95 = icmp ne i32 %94, 0
  br i1 %95, label %96, label %100

96:                                               ; preds = %89
  %97 = call ptr @_(ptr noundef @.str.272)
  %98 = load ptr, ptr %12, align 8, !tbaa !11
  %99 = load ptr, ptr %13, align 8, !tbaa !11
  call void (ptr, ...) @die(ptr noundef %97, ptr noundef %98, ptr noundef %99) #12
  unreachable

100:                                              ; preds = %89
  call void @llvm.lifetime.end.p0(i64 8, ptr %17) #11
  call void @llvm.lifetime.end.p0(i64 4, ptr %16) #11
  br label %101

101:                                              ; preds = %100, %75
  %102 = load ptr, ptr %13, align 8, !tbaa !11
  call void @free(ptr noundef %102) #11
  call void @llvm.lifetime.end.p0(i64 8, ptr %15) #11
  call void @llvm.lifetime.end.p0(i64 8, ptr %14) #11
  call void @llvm.lifetime.end.p0(i64 8, ptr %13) #11
  call void @llvm.lifetime.end.p0(i64 8, ptr %12) #11
  call void @llvm.lifetime.end.p0(i64 4, ptr %11) #11
  call void @llvm.lifetime.end.p0(i64 176, ptr %10) #11
  call void @llvm.lifetime.end.p0(i64 8, ptr %9) #11
  ret i32 0
}