; Function Attrs: nounwind uwtable
define internal noundef i32 @maintenance_register(i32 noundef %0, ptr noundef %1, ptr noundef %2, ptr readnone captures(none) %3) #0 {
  %5 = alloca %struct.strbuf, align 8
  %6 = alloca ptr, align 8
  %7 = alloca [2 x %struct.option], align 16
  %8 = alloca ptr, align 8
  call void @llvm.lifetime.start.p0(i64 8, ptr nonnull %6) #21
  store ptr null, ptr %6, align 8, !tbaa !26
  call void @llvm.lifetime.start.p0(i64 176, ptr nonnull %7) #21
  call void @llvm.memset.p0.i64(ptr noundef nonnull align 16 dereferenceable(176) %7, i8 0, i64 176, i1 false)
  store i32 10, ptr %7, align 16, !tbaa !27
  %9 = getelementptr inbounds nuw i8, ptr %7, i64 8
  store ptr @.str.265, ptr %9, align 8, !tbaa !30
  %10 = getelementptr inbounds nuw i8, ptr %7, i64 16
  store ptr %6, ptr %10, align 16, !tbaa !31
  %11 = getelementptr inbounds nuw i8, ptr %7, i64 24
  store ptr @.str.266, ptr %11, align 8, !tbaa !32
  %12 = getelementptr inbounds nuw i8, ptr %7, i64 32
  store ptr @.str.267, ptr %12, align 16, !tbaa !33
  call void @llvm.lifetime.start.p0(i64 24, ptr nonnull %5) #21
  call void @llvm.memcpy.p0.p0.i64(ptr noundef nonnull align 8 dereferenceable(24) %5, ptr noundef nonnull align 8 dereferenceable(24) @__const.get_maintpath.sb, i64 24, i1 false)
  %13 = load ptr, ptr @the_repository, align 8, !tbaa !42
  %14 = getelementptr inbounds nuw i8, ptr %13, i64 240
  %15 = load ptr, ptr %14, align 8, !tbaa !136
  %.not.i = icmp eq ptr %15, null
  br i1 %.not.i, label %16, label %get_maintpath.exit

16:                                               ; preds = %4
  %17 = load ptr, ptr %13, align 8, !tbaa !137
  br label %get_maintpath.exit

get_maintpath.exit:                               ; preds = %4, %16
  %18 = phi ptr [ %17, %16 ], [ %15, %4 ]
  %19 = call ptr @strbuf_realpath(ptr noundef nonnull %5, ptr noundef %18, i32 noundef 1) #21
  %20 = call ptr @strbuf_detach(ptr noundef nonnull %5, ptr noundef null) #21
  call void @llvm.lifetime.end.p0(i64 24, ptr nonnull %5) #21
  call void @llvm.lifetime.start.p0(i64 8, ptr nonnull %8) #21
  %21 = call i32 @parse_options(i32 noundef %0, ptr noundef %1, ptr noundef %2, ptr noundef nonnull %7, ptr noundef nonnull @builtin_maintenance_register_usage, i32 noundef 0) #21
  %.not = icmp eq i32 %21, 0
  br i1 %.not, label %23, label %22

22:                                               ; preds = %get_maintpath.exit
  call void @usage_with_options(ptr noundef nonnull @builtin_maintenance_register_usage, ptr noundef nonnull %7) #22
  unreachable

23:                                               ; preds = %get_maintpath.exit
  %24 = load ptr, ptr @the_repository, align 8, !tbaa !42
  call void @repo_config_set(ptr noundef %24, ptr noundef nonnull @.str.269, ptr noundef nonnull @.str.270) #21
  %25 = load ptr, ptr @the_repository, align 8, !tbaa !42
  %26 = call i32 @repo_config_get(ptr noundef %25, ptr noundef nonnull @.str.159) #21
  %.not20 = icmp eq i32 %26, 0
  br i1 %.not20, label %29, label %27

27:                                               ; preds = %23
  %28 = load ptr, ptr @the_repository, align 8, !tbaa !42
  call void @repo_config_set(ptr noundef %28, ptr noundef nonnull @.str.159, ptr noundef nonnull @.str.160) #21
  br label %29

29:                                               ; preds = %27, %23
  %30 = load ptr, ptr @the_repository, align 8, !tbaa !42
  %31 = call i32 @repo_config_get_string_multi(ptr noundef %30, ptr noundef nonnull @.str.268, ptr noundef nonnull %8) #21
  %.not21 = icmp eq i32 %31, 0
  br i1 %.not21, label %32, label %.critedge28

32:                                               ; preds = %29
  %33 = load ptr, ptr %8, align 8, !tbaa !138
  %34 = load ptr, ptr %33, align 8, !tbaa !83
  %.not2232 = icmp eq ptr %34, null
  br i1 %.not2232, label %.critedge28, label %.lr.ph

.lr.ph:                                           ; preds = %32
  %35 = getelementptr inbounds nuw i8, ptr %33, i64 8
  %36 = load i64, ptr %35, align 8, !tbaa !62
  %37 = getelementptr inbounds nuw %struct.string_list_item, ptr %34, i64 %36
  %.not37 = icmp eq i64 %36, 0
  br i1 %.not37, label %.critedge28, label %.lr.ph36

38:                                               ; preds = %.lr.ph36
  %39 = getelementptr inbounds nuw i8, ptr %.0183335, i64 16
  %40 = icmp ult ptr %39, %37
  br i1 %40, label %.lr.ph36, label %.critedge28

.lr.ph36:                                         ; preds = %.lr.ph, %38
  %.0183335 = phi ptr [ %39, %38 ], [ %34, %.lr.ph ]
  %41 = load ptr, ptr %.0183335, align 8, !tbaa !84
  %42 = call i32 @strcmp(ptr noundef nonnull dereferenceable(1) %20, ptr noundef nonnull dereferenceable(1) %41) #25
  %.not23 = icmp eq i32 %42, 0
  br i1 %.not23, label %.critedge, label %38

.critedge28:                                      ; preds = %38, %.lr.ph, %32, %29
  %43 = load ptr, ptr %6, align 8, !tbaa !26
  %.not25 = icmp eq ptr %43, null
  br i1 %.not25, label %44, label %.thread

44:                                               ; preds = %.critedge28
  %45 = call ptr @git_global_config() #21
  store ptr %45, ptr %6, align 8, !tbaa !26
  %.not26 = icmp eq ptr %45, null
  br i1 %.not26, label %46, label %.thread

46:                                               ; preds = %44
  %47 = call fastcc ptr @_(ptr noundef nonnull @.str.271)
  call void (ptr, ...) @die(ptr noundef %47) #22
  unreachable

.thread:                                          ; preds = %.critedge28, %44
  %.031 = phi ptr [ %45, %44 ], [ null, %.critedge28 ]
  %48 = phi ptr [ %45, %44 ], [ %43, %.critedge28 ]
  %49 = load ptr, ptr @the_repository, align 8, !tbaa !42
  %50 = call i32 @repo_config_set_multivar_in_file_gently(ptr noundef %49, ptr noundef nonnull %48, ptr noundef nonnull @.str.268, ptr noundef %20, ptr noundef nonnull inttoptr (i64 1 to ptr), ptr noundef null, i32 noundef 0) #21
  call void @free(ptr noundef %.031) #21
  %.not27 = icmp eq i32 %50, 0
  br i1 %.not27, label %.critedge, label %51

51:                                               ; preds = %.thread
  %52 = call fastcc ptr @_(ptr noundef nonnull @.str.272)
  call void (ptr, ...) @die(ptr noundef %52, ptr noundef nonnull @.str.268, ptr noundef %20) #22
  unreachable

.critedge:                                        ; preds = %.lr.ph36, %.thread
  call void @free(ptr noundef %20) #21
  call void @llvm.lifetime.end.p0(i64 8, ptr nonnull %8) #21
  call void @llvm.lifetime.end.p0(i64 176, ptr nonnull %7) #21
  call void @llvm.lifetime.end.p0(i64 8, ptr nonnull %6) #21
  ret i32 0
}